target datalayout = "e-m:e-p270:32:32-p271:32:32-p272:64:64-i64:64-i128:128-f80:128-n8:16:32:64-S128"
target triple = "x86_64-pc-linux-gnu"

%union.pthread_mutex_t = type { %struct.__pthread_mutex_s }
%struct.__pthread_mutex_s = type { i32, i32, i32, i32, i32, i16, i16, %struct.__pthread_internal_list }
%struct.__pthread_internal_list = type { ptr, ptr }

@sackd_lock = internal global %union.pthread_mutex_t zeroinitializer, align 8
@.str = private unnamed_addr constant [29 x i8] c"%s: pthread_mutex_lock(): %m\00", align 1
@.str.2 = private unnamed_addr constant [31 x i8] c"%s: pthread_mutex_unlock(): %m\00", align 1
@.str.4 = private unnamed_addr constant [3 x i8] c"%s\00", align 1
@__func__.sackd_mgr_fini = private unnamed_addr constant [15 x i8] c"sackd_mgr_fini\00", align 1

; Function Attrs: nounwind uwtable
define dso_local void @sackd_mgr_fini() #0 {
  %1 = alloca i32, align 4
  %2 = alloca i32, align 4
  br label %3

3:                                                ; preds = %0
  br label %4

4:                                                ; preds = %3
  %5 = call i32 @get_log_level()
  %6 = icmp sge i32 %5, 5
  br i1 %6, label %7, label %8

7:                                                ; preds = %4
  call void (i32, ptr, ...) @log_var(i32 noundef 5, ptr noundef @.str.4, ptr noundef @__func__.sackd_mgr_fini)
  br label %8

8:                                                ; preds = %7, %4
  br label %9

9:                                                ; preds = %8
  br label %10

10:                                               ; preds = %9
  br label %11

11:                                               ; preds = %10
  call void @llvm.lifetime.start.p0(i64 4, ptr %1) #7
  %12 = call i32 @pthread_mutex_lock(ptr noundef @sackd_lock) #7
  store i32 %12, ptr %1, align 4
  %13 = load i32, ptr %1, align 4
  %14 = icmp ne i32 %13, 0
  br i1 %14, label %15, label %18

15:                                               ; preds = %11
  %16 = load i32, ptr %1, align 4
  %17 = call ptr @__errno_location() #8
  store i32 %16, ptr %17, align 4
  call void (ptr, ...) @fatal_abort(ptr noundef @.str, ptr noundef @__func__.sackd_mgr_fini) #9
  unreachable

18:                                               ; preds = %11
  call void @llvm.lifetime.end.p0(i64 4, ptr %1) #7
  br label %19

19:                                               ; preds = %18
  br label %20

20:                                               ; preds = %19
  call void @llvm.lifetime.start.p0(i64 4, ptr %2) #7
  %21 = call i32 @pthread_mutex_unlock(ptr noundef @sackd_lock) #7
  store i32 %21, ptr %2, align 4
  %22 = load i32, ptr %2, align 4
  %23 = icmp ne i32 %22, 0
  br i1 %23, label %24, label %27

24:                                               ; preds = %20
  %25 = load i32, ptr %2, align 4
  %26 = call ptr @__errno_location() #8
  store i32 %25, ptr %26, align 4
  call void (ptr, ...) @fatal_abort(ptr noundef @.str.2, ptr noundef @__func__.sackd_mgr_fini) #9
  unreachable

27:                                               ; preds = %20
  call void @llvm.lifetime.end.p0(i64 4, ptr %2) #7
  br label %28

28:                                               ; preds = %27
  ret void
}