; Function Attrs: nounwind uwtable
define dso_local void @sackd_mgr_fini() local_unnamed_addr #0 {
  %1 = tail call i32 @get_log_level() #7
  %2 = icmp sgt i32 %1, 4
  br i1 %2, label %3, label %4

3:                                                ; preds = %0
  tail call void (i32, ptr, ...) @log_var(i32 noundef 5, ptr noundef nonnull @.str.4, ptr noundef nonnull @__func__.sackd_mgr_fini) #7
  br label %4

4:                                                ; preds = %0, %3
  %5 = tail call i32 @pthread_mutex_lock(ptr noundef nonnull @sackd_lock) #7
  %.not = icmp eq i32 %5, 0
  br i1 %.not, label %8, label %6

6:                                                ; preds = %4
  %7 = tail call ptr @__errno_location() #8
  store i32 %5, ptr %7, align 4
  tail call void (ptr, ...) @fatal_abort(ptr noundef nonnull @.str, ptr noundef nonnull @__func__.sackd_mgr_fini) #9
  unreachable

8:                                                ; preds = %4
  %9 = tail call i32 @pthread_mutex_unlock(ptr noundef nonnull @sackd_lock) #7
  %.not5 = icmp eq i32 %9, 0
  br i1 %.not5, label %12, label %10

10:                                               ; preds = %8
  %11 = tail call ptr @__errno_location() #8
  store i32 %9, ptr %11, align 4
  tail call void (ptr, ...) @fatal_abort(ptr noundef nonnull @.str.2, ptr noundef nonnull @__func__.sackd_mgr_fini) #9
  unreachable

12:                                               ; preds = %8
  ret void
}